; Function Attrs: mustprogress uwtable
define hidden void @_ZN3sat3big7add_delENS_7literalES1_(ptr nocapture noundef nonnull readonly align 8 dereferenceable(80) %this, i32 %u.coerce, i32 %v.coerce) local_unnamed_addr #4 align 2 {
entry:
  %spec.select = tail call i32 @llvm.umin.i32(i32 %u.coerce, i32 %v.coerce)
  %m_del_bin = getelementptr inbounds i8, ptr %this, i64 72
  %0 = load ptr, ptr %m_del_bin, align 8
  %idxprom.i = zext i32 %spec.select to i64
  %arrayidx.i = getelementptr inbounds %class.svector.3, ptr %0, i64 %idxprom.i
  %1 = load ptr, ptr %arrayidx.i, align 8
  %cmp.i = icmp eq ptr %1, null
  br i1 %cmp.i, label %if.then.i, label %lor.lhs.false.i

lor.lhs.false.i:                                  ; preds = %entry
  %arrayidx.i1 = getelementptr inbounds i8, ptr %1, i64 -4
  %2 = load i32, ptr %arrayidx.i1, align 4
  %arrayidx4.i = getelementptr inbounds i8, ptr %1, i64 -8
  %3 = load i32, ptr %arrayidx4.i, align 4
  %cmp5.i = icmp eq i32 %2, %3
  br i1 %cmp5.i, label %if.then.i, label %_ZN6vectorIN3sat7literalELb0EjE9push_backERKS1_.exit

if.then.i:                                        ; preds = %lor.lhs.false.i, %entry
  tail call void @_ZN6vectorIN3sat7literalELb0EjE13expand_vectorEv(ptr noundef nonnull align 8 dereferenceable(8) %arrayidx.i)
  %.pre.i = load ptr, ptr %arrayidx.i, align 8
  %arrayidx8.phi.trans.insert.i = getelementptr inbounds i8, ptr %.pre.i, i64 -4
  %.pre1.i = load i32, ptr %arrayidx8.phi.trans.insert.i, align 4
  br label %_ZN6vectorIN3sat7literalELb0EjE9push_backERKS1_.exit

_ZN6vectorIN3sat7literalELb0EjE9push_backERKS1_.exit: ; preds = %lor.lhs.false.i, %if.then.i
  %4 = phi i32 [ %.pre1.i, %if.then.i ], [ %2, %lor.lhs.false.i ]
  %5 = phi ptr [ %.pre.i, %if.then.i ], [ %1, %lor.lhs.false.i ]
  %spec.select6 = tail call i32 @llvm.umax.i32(i32 %u.coerce, i32 %v.coerce)
  %idx.ext.i = zext i32 %4 to i64
  %add.ptr.i = getelementptr inbounds %"class.sat::literal", ptr %5, i64 %idx.ext.i
  store i32 %spec.select6, ptr %add.ptr.i, align 4
  %6 = load ptr, ptr %arrayidx.i, align 8
  %arrayidx10.i = getelementptr inbounds i8, ptr %6, i64 -4
  %7 = load i32, ptr %arrayidx10.i, align 4
  %inc.i = add i32 %7, 1
  store i32 %inc.i, ptr %arrayidx10.i, align 4
  ret void
}